target datalayout = "e-m:e-p270:32:32-p271:32:32-p272:64:64-i64:64-i128:128-f80:128-n8:16:32:64-S128"
target triple = "x86_64-pc-linux-gnu"

%"class.ue2::CharReach" = type { %"class.ue2::bitfield" }
%"class.ue2::bitfield" = type { %"struct.std::array" }
%"struct.std::array" = type { [4 x i64] }

; Function Attrs: mustprogress nounwind uwtable
define linkonce_odr dso_local noundef nonnull align 8 dereferenceable(8) ptr @_ZNSt14__array_traitsIyLm4EE6_S_refERA4_Kym(ptr noundef nonnull align 8 dereferenceable(32) %0, i64 noundef %1) #2 comdat align 2 {
  %3 = alloca ptr, align 8
  %4 = alloca i64, align 8
  store ptr %0, ptr %3, align 8
  store i64 %1, ptr %4, align 8
  %5 = load ptr, ptr %3, align 8
  %6 = load i64, ptr %4, align 8
  %7 = getelementptr inbounds nuw [4 x i64], ptr %5, i64 0, i64 %6
  ret ptr %7
}

; Function Attrs: inlinehint mustprogress nounwind uwtable
define linkonce_odr dso_local void @_ZSt9__fill_a1IPhiEN9__gnu_cxx11__enable_ifIXsr11__is_scalarIT0_EE7__valueEvE6__typeET_S6_RKS3_(ptr noundef %0, ptr noundef %1, ptr noundef nonnull align 4 dereferenceable(4) %2) #3 comdat {
  %4 = alloca ptr, align 8
  %5 = alloca ptr, align 8
  %6 = alloca ptr, align 8
  %7 = alloca i32, align 4
  store ptr %0, ptr %4, align 8
  store ptr %1, ptr %5, align 8
  store ptr %2, ptr %6, align 8
  call void @llvm.lifetime.start.p0(i64 4, ptr %7) #15
  %8 = load ptr, ptr %6, align 8
  %9 = load i32, ptr %8, align 4
  store i32 %9, ptr %7, align 4
  br label %10

10:                                               ; preds = %18, %3
  %11 = load ptr, ptr %4, align 8
  %12 = load ptr, ptr %5, align 8
  %13 = icmp ne ptr %11, %12
  br i1 %13, label %14, label %21

14:                                               ; preds = %10
  %15 = load i32, ptr %7, align 4
  %16 = trunc i32 %15 to i8
  %17 = load ptr, ptr %4, align 8
  store i8 %16, ptr %17, align 1
  br label %18

18:                                               ; preds = %14
  %19 = load ptr, ptr %4, align 8
  %20 = getelementptr inbounds nuw i8, ptr %19, i32 1
  store ptr %20, ptr %4, align 8
  br label %10, !llvm.loop !19

21:                                               ; preds = %10
  call void @llvm.lifetime.end.p0(i64 4, ptr %7) #15
  ret void
}

; Function Attrs: alwaysinline mustprogress nounwind uwtable
define internal noundef i32 @_ZL5ctz64y(i64 noundef %0) #7 {
  %2 = alloca i64, align 8
  store i64 %0, ptr %2, align 8
  %3 = load i64, ptr %2, align 8
  %4 = call i64 @llvm.cttz.i64(i64 %3, i1 true)
  %5 = trunc i64 %4 to i32
  ret i32 %5
}

; Function Attrs: mustprogress nounwind uwtable
define linkonce_odr hidden noundef i64 @_ZN3ue28bitfieldILm256EE7getwordEm(i64 noundef %0) #2 comdat align 2 {
  %2 = alloca i64, align 8
  store i64 %0, ptr %2, align 8
  %3 = load i64, ptr %2, align 8
  %4 = udiv i64 %3, 64
  ret i64 %4
}

; Function Attrs: mustprogress nounwind uwtable
define linkonce_odr hidden noundef i64 @_ZN3ue28bitfieldILm256EE4sizeEv() #2 comdat align 2 {
  ret i64 256
}

; Function Attrs: mustprogress uwtable
define linkonce_odr hidden noundef i64 @_ZNK3ue28bitfieldILm256EE8word_ctzEm(ptr noundef nonnull align 8 dereferenceable(32) %0, i64 noundef %1) #0 comdat align 2 {
  %3 = alloca ptr, align 8
  %4 = alloca i64, align 8
  store ptr %0, ptr %3, align 8
  store i64 %1, ptr %4, align 8
  %5 = load ptr, ptr %3, align 8
  %6 = getelementptr inbounds nuw %"class.ue2::bitfield", ptr %5, i32 0, i32 0
  %7 = load i64, ptr %4, align 8
  %8 = call noundef nonnull align 8 dereferenceable(8) ptr @_ZNKSt5arrayIyLm4EEixEm(ptr noundef nonnull align 8 dereferenceable(32) %6, i64 noundef %7) #15
  %9 = load i64, ptr %8, align 8
  %10 = call noundef i32 @_ZL5ctz64y(i64 noundef %9)
  %11 = zext i32 %10 to i64
  ret i64 %11
}

; Function Attrs: mustprogress nounwind uwtable
define linkonce_odr dso_local noundef nonnull align 8 dereferenceable(8) ptr @_ZNKSt5arrayIyLm4EEixEm(ptr noundef nonnull align 8 dereferenceable(32) %0, i64 noundef %1) #2 comdat align 2 {
  %3 = alloca ptr, align 8
  %4 = alloca i64, align 8
  store ptr %0, ptr %3, align 8
  store i64 %1, ptr %4, align 8
  %5 = load ptr, ptr %3, align 8
  %6 = getelementptr inbounds nuw %"struct.std::array", ptr %5, i32 0, i32 0
  %7 = load i64, ptr %4, align 8
  %8 = call noundef nonnull align 8 dereferenceable(8) ptr @_ZNSt14__array_traitsIyLm4EE6_S_refERA4_Kym(ptr noundef nonnull align 8 dereferenceable(32) %6, i64 noundef %7) #15
  ret ptr %8
}

; Function Attrs: mustprogress nounwind willreturn memory(none) uwtable
define linkonce_odr dso_local noundef i64 @_ZNKSt5arrayIyLm4EE4sizeEv(ptr noundef nonnull align 8 dereferenceable(32) %0) #6 comdat align 2 {
  %2 = alloca ptr, align 8
  store ptr %0, ptr %2, align 8
  ret i64 4
}

; Function Attrs: inlinehint mustprogress uwtable
define linkonce_odr dso_local void @_ZSt8__fill_aIPhiEvT_S1_RKT0_(ptr noundef %0, ptr noundef %1, ptr noundef nonnull align 4 dereferenceable(4) %2) #5 comdat {
  %4 = alloca ptr, align 8
  %5 = alloca ptr, align 8
  %6 = alloca ptr, align 8
  store ptr %0, ptr %4, align 8
  store ptr %1, ptr %5, align 8
  store ptr %2, ptr %6, align 8
  %7 = load ptr, ptr %4, align 8
  %8 = load ptr, ptr %5, align 8
  %9 = load ptr, ptr %6, align 8
  call void @_ZSt9__fill_a1IPhiEN9__gnu_cxx11__enable_ifIXsr11__is_scalarIT0_EE7__valueEvE6__typeET_S6_RKS3_(ptr noundef %7, ptr noundef %8, ptr noundef nonnull align 4 dereferenceable(4) %9)
  ret void
}

; Function Attrs: mustprogress uwtable
define linkonce_odr hidden noundef i64 @_ZNK3ue28bitfieldILm256EE9find_nextEm(ptr noundef nonnull align 8 dereferenceable(32) %0, i64 noundef %1) #0 comdat align 2 {
  %3 = alloca i64, align 8
  %4 = alloca ptr, align 8
  %5 = alloca i64, align 8
  %6 = alloca i64, align 8
  %7 = alloca i64, align 8
  %8 = alloca i32, align 4
  store ptr %0, ptr %4, align 8
  store i64 %1, ptr %5, align 8
  %9 = load ptr, ptr %4, align 8
  %10 = load i64, ptr %5, align 8
  %11 = call noundef i64 @_ZN3ue28bitfieldILm256EE4sizeEv()
  %12 = icmp uge i64 %10, %11
  br i1 %12, label %13, label %14

13:                                               ; preds = %2
  store i64 256, ptr %3, align 8
  br label %67

14:                                               ; preds = %2
  call void @llvm.lifetime.start.p0(i64 8, ptr %6) #15
  %15 = load i64, ptr %5, align 8
  %16 = call noundef i64 @_ZN3ue28bitfieldILm256EE7getwordEm(i64 noundef %15)
  store i64 %16, ptr %6, align 8
  call void @llvm.lifetime.start.p0(i64 8, ptr %7) #15
  %17 = getelementptr inbounds nuw %"class.ue2::bitfield", ptr %9, i32 0, i32 0
  %18 = load i64, ptr %6, align 8
  %19 = call noundef nonnull align 8 dereferenceable(8) ptr @_ZNKSt5arrayIyLm4EEixEm(ptr noundef nonnull align 8 dereferenceable(32) %17, i64 noundef %18) #15
  %20 = load i64, ptr %19, align 8
  store i64 %20, ptr %7, align 8
  %21 = load i64, ptr %5, align 8
  %22 = urem i64 %21, 64
  %23 = icmp ne i64 %22, 63
  br i1 %23, label %24, label %41

24:                                               ; preds = %14
  %25 = load i64, ptr %5, align 8
  %26 = urem i64 %25, 64
  %27 = add i64 %26, 1
  %28 = shl i64 -1, %27
  %29 = load i64, ptr %7, align 8
  %30 = and i64 %29, %28
  store i64 %30, ptr %7, align 8
  %31 = load i64, ptr %7, align 8
  %32 = icmp ne i64 %31, 0
  br i1 %32, label %33, label %40

33:                                               ; preds = %24
  %34 = load i64, ptr %6, align 8
  %35 = mul i64 %34, 64
  %36 = load i64, ptr %7, align 8
  %37 = call noundef i32 @_ZL5ctz64y(i64 noundef %36)
  %38 = zext i32 %37 to i64
  %39 = add i64 %35, %38
  store i64 %39, ptr %3, align 8
  store i32 1, ptr %8, align 4
  br label %66

40:                                               ; preds = %24
  br label %41

41:                                               ; preds = %40, %14
  %42 = load i64, ptr %6, align 8
  %43 = add i64 %42, 1
  store i64 %43, ptr %6, align 8
  br label %44

44:                                               ; preds = %62, %41
  %45 = load i64, ptr %6, align 8
  %46 = getelementptr inbounds nuw %"class.ue2::bitfield", ptr %9, i32 0, i32 0
  %47 = call noundef i64 @_ZNKSt5arrayIyLm4EE4sizeEv(ptr noundef nonnull align 8 dereferenceable(32) %46) #17
  %48 = icmp ult i64 %45, %47
  br i1 %48, label %49, label %65

49:                                               ; preds = %44
  %50 = getelementptr inbounds nuw %"class.ue2::bitfield", ptr %9, i32 0, i32 0
  %51 = load i64, ptr %6, align 8
  %52 = call noundef nonnull align 8 dereferenceable(8) ptr @_ZNKSt5arrayIyLm4EEixEm(ptr noundef nonnull align 8 dereferenceable(32) %50, i64 noundef %51) #15
  %53 = load i64, ptr %52, align 8
  %54 = icmp ne i64 %53, 0
  br i1 %54, label %55, label %61

55:                                               ; preds = %49
  %56 = load i64, ptr %6, align 8
  %57 = mul i64 %56, 64
  %58 = load i64, ptr %6, align 8
  %59 = call noundef i64 @_ZNK3ue28bitfieldILm256EE8word_ctzEm(ptr noundef nonnull align 8 dereferenceable(32) %9, i64 noundef %58)
  %60 = add i64 %57, %59
  store i64 %60, ptr %3, align 8
  store i32 1, ptr %8, align 4
  br label %66

61:                                               ; preds = %49
  br label %62

62:                                               ; preds = %61
  %63 = load i64, ptr %6, align 8
  %64 = add i64 %63, 1
  store i64 %64, ptr %6, align 8
  br label %44, !llvm.loop !13

65:                                               ; preds = %44
  store i64 256, ptr %3, align 8
  store i32 1, ptr %8, align 4
  br label %66

66:                                               ; preds = %65, %55, %33
  call void @llvm.lifetime.end.p0(i64 8, ptr %7) #15
  call void @llvm.lifetime.end.p0(i64 8, ptr %6) #15
  br label %67

67:                                               ; preds = %66, %13
  %68 = load i64, ptr %3, align 8
  ret i64 %68
}

; Function Attrs: mustprogress uwtable
define linkonce_odr hidden noundef i64 @_ZNK3ue28bitfieldILm256EE10find_firstEv(ptr noundef nonnull align 8 dereferenceable(32) %0) #0 comdat align 2 {
  %2 = alloca i64, align 8
  %3 = alloca ptr, align 8
  %4 = alloca i64, align 8
  %5 = alloca i32, align 4
  store ptr %0, ptr %3, align 8
  %6 = load ptr, ptr %3, align 8
  call void @llvm.lifetime.start.p0(i64 8, ptr %4) #15
  store i64 0, ptr %4, align 8
  br label %7

7:                                                ; preds = %26, %1
  %8 = load i64, ptr %4, align 8
  %9 = getelementptr inbounds nuw %"class.ue2::bitfield", ptr %6, i32 0, i32 0
  %10 = call noundef i64 @_ZNKSt5arrayIyLm4EE4sizeEv(ptr noundef nonnull align 8 dereferenceable(32) %9) #17
  %11 = icmp ult i64 %8, %10
  br i1 %11, label %13, label %12

12:                                               ; preds = %7
  store i32 2, ptr %5, align 4
  br label %29

13:                                               ; preds = %7
  %14 = getelementptr inbounds nuw %"class.ue2::bitfield", ptr %6, i32 0, i32 0
  %15 = load i64, ptr %4, align 8
  %16 = call noundef nonnull align 8 dereferenceable(8) ptr @_ZNKSt5arrayIyLm4EEixEm(ptr noundef nonnull align 8 dereferenceable(32) %14, i64 noundef %15) #15
  %17 = load i64, ptr %16, align 8
  %18 = icmp ne i64 %17, 0
  br i1 %18, label %19, label %25

19:                                               ; preds = %13
  %20 = load i64, ptr %4, align 8
  %21 = mul i64 %20, 64
  %22 = load i64, ptr %4, align 8
  %23 = call noundef i64 @_ZNK3ue28bitfieldILm256EE8word_ctzEm(ptr noundef nonnull align 8 dereferenceable(32) %6, i64 noundef %22)
  %24 = add i64 %21, %23
  store i64 %24, ptr %2, align 8
  store i32 1, ptr %5, align 4
  br label %29

25:                                               ; preds = %13
  br label %26

26:                                               ; preds = %25
  %27 = load i64, ptr %4, align 8
  %28 = add i64 %27, 1
  store i64 %28, ptr %4, align 8
  br label %7, !llvm.loop !12

29:                                               ; preds = %19, %12
  call void @llvm.lifetime.end.p0(i64 8, ptr %4) #15
  %30 = load i32, ptr %5, align 4
  switch i32 %30, label %34 [
    i32 2, label %31
    i32 1, label %32
  ]

31:                                               ; preds = %29
  store i64 256, ptr %2, align 8
  br label %32

32:                                               ; preds = %31, %29
  %33 = load i64, ptr %2, align 8
  ret i64 %33

34:                                               ; preds = %29
  unreachable
}

; Function Attrs: inlinehint mustprogress uwtable
define linkonce_odr dso_local noundef ptr @_ZSt10__fill_n_aIPhiiET_S1_T0_RKT1_St26random_access_iterator_tag(ptr noundef %0, i32 noundef %1, ptr noundef nonnull align 4 dereferenceable(4) %2) #5 comdat {
  %4 = alloca ptr, align 8
  %5 = alloca ptr, align 8
  %6 = alloca i32, align 4
  %7 = alloca ptr, align 8
  store ptr %0, ptr %5, align 8
  store i32 %1, ptr %6, align 4
  store ptr %2, ptr %7, align 8
  %8 = load i32, ptr %6, align 4
  %9 = icmp sle i32 %8, 0
  br i1 %9, label %10, label %12

10:                                               ; preds = %3
  %11 = load ptr, ptr %5, align 8
  store ptr %11, ptr %4, align 8
  br label %23

12:                                               ; preds = %3
  %13 = load ptr, ptr %5, align 8
  %14 = load ptr, ptr %5, align 8
  %15 = load i32, ptr %6, align 4
  %16 = sext i32 %15 to i64
  %17 = getelementptr inbounds i8, ptr %14, i64 %16
  %18 = load ptr, ptr %7, align 8
  call void @_ZSt8__fill_aIPhiEvT_S1_RKT0_(ptr noundef %13, ptr noundef %17, ptr noundef nonnull align 4 dereferenceable(4) %18)
  %19 = load ptr, ptr %5, align 8
  %20 = load i32, ptr %6, align 4
  %21 = sext i32 %20 to i64
  %22 = getelementptr inbounds i8, ptr %19, i64 %21
  store ptr %22, ptr %4, align 8
  br label %23

23:                                               ; preds = %12, %10
  %24 = load ptr, ptr %4, align 8
  ret ptr %24
}

; Function Attrs: inlinehint mustprogress nounwind uwtable
define linkonce_odr dso_local void @_ZSt19__iterator_categoryIPhENSt15iterator_traitsIT_E17iterator_categoryERKS2_(ptr noundef nonnull align 8 dereferenceable(8) %0) #3 comdat {
  %2 = alloca ptr, align 8
  store ptr %0, ptr %2, align 8
  ret void
}

; Function Attrs: inlinehint mustprogress nounwind uwtable
define linkonce_odr dso_local noundef i32 @_ZSt17__size_to_integeri(i32 noundef %0) #3 comdat {
  %2 = alloca i32, align 4
  store i32 %0, ptr %2, align 4
  %3 = load i32, ptr %2, align 4
  ret i32 %3
}

; Function Attrs: mustprogress uwtable
define linkonce_odr hidden noundef i64 @_ZNK3ue29CharReach9find_nextEm(ptr noundef nonnull align 8 dereferenceable(32) %0, i64 noundef %1) #0 comdat align 2 {
  %3 = alloca ptr, align 8
  %4 = alloca i64, align 8
  store ptr %0, ptr %3, align 8
  store i64 %1, ptr %4, align 8
  %5 = load ptr, ptr %3, align 8
  %6 = getelementptr inbounds nuw %"class.ue2::CharReach", ptr %5, i32 0, i32 0
  %7 = load i64, ptr %4, align 8
  %8 = call noundef i64 @_ZNK3ue28bitfieldILm256EE9find_nextEm(ptr noundef nonnull align 8 dereferenceable(32) %6, i64 noundef %7)
  ret i64 %8
}

; Function Attrs: mustprogress uwtable
define linkonce_odr hidden noundef i64 @_ZNK3ue29CharReach10find_firstEv(ptr noundef nonnull align 8 dereferenceable(32) %0) #0 comdat align 2 {
  %2 = alloca ptr, align 8
  store ptr %0, ptr %2, align 8
  %3 = load ptr, ptr %2, align 8
  %4 = getelementptr inbounds nuw %"class.ue2::CharReach", ptr %3, i32 0, i32 0
  %5 = call noundef i64 @_ZNK3ue28bitfieldILm256EE10find_firstEv(ptr noundef nonnull align 8 dereferenceable(32) %4)
  ret i64 %5
}

; Function Attrs: inlinehint mustprogress uwtable
define linkonce_odr dso_local noundef ptr @_ZSt6fill_nIPhiiET_S1_T0_RKT1_(ptr noundef %0, i32 noundef %1, ptr noundef nonnull align 4 dereferenceable(4) %2) #5 comdat {
  %4 = alloca ptr, align 8
  %5 = alloca i32, align 4
  %6 = alloca ptr, align 8
  store ptr %0, ptr %4, align 8
  store i32 %1, ptr %5, align 4
  store ptr %2, ptr %6, align 8
  %7 = load ptr, ptr %4, align 8
  %8 = load i32, ptr %5, align 4
  %9 = call noundef i32 @_ZSt17__size_to_integeri(i32 noundef %8)
  %10 = load ptr, ptr %6, align 8
  call void @_ZSt19__iterator_categoryIPhENSt15iterator_traitsIT_E17iterator_categoryERKS2_(ptr noundef nonnull align 8 dereferenceable(8) %4)
  %11 = call noundef ptr @_ZSt10__fill_n_aIPhiiET_S1_T0_RKT1_St26random_access_iterator_tag(ptr noundef %7, i32 noundef %9, ptr noundef nonnull align 4 dereferenceable(4) %10)
  ret ptr %11
}

; Function Attrs: mustprogress uwtable
define hidden void @_ZN3ue214fill_bitvectorERKNS_9CharReachEPh(ptr noundef nonnull align 8 dereferenceable(32) %0, ptr noundef %1) #0 {
  %3 = alloca ptr, align 8
  %4 = alloca ptr, align 8
  %5 = alloca i32, align 4
  %6 = alloca i64, align 8
  store ptr %0, ptr %3, align 8
  store ptr %1, ptr %4, align 8
  %7 = load ptr, ptr %4, align 8
  call void @llvm.lifetime.start.p0(i64 4, ptr %5) #15
  store i32 0, ptr %5, align 4
  %8 = call noundef ptr @_ZSt6fill_nIPhiiET_S1_T0_RKT1_(ptr noundef %7, i32 noundef 32, ptr noundef nonnull align 4 dereferenceable(4) %5)
  call void @llvm.lifetime.end.p0(i64 4, ptr %5) #15
  call void @llvm.lifetime.start.p0(i64 8, ptr %6) #15
  %9 = load ptr, ptr %3, align 8
  %10 = call noundef i64 @_ZNK3ue29CharReach10find_firstEv(ptr noundef nonnull align 8 dereferenceable(32) %9)
  store i64 %10, ptr %6, align 8
  br label %11

11:                                               ; preds = %28, %2
  %12 = load i64, ptr %6, align 8
  %13 = icmp ne i64 %12, 256
  br i1 %13, label %15, label %14

14:                                               ; preds = %11
  call void @llvm.lifetime.end.p0(i64 8, ptr %6) #15
  br label %32

15:                                               ; preds = %11
  %16 = load i64, ptr %6, align 8
  %17 = urem i64 %16, 8
  %18 = trunc i64 %17 to i32
  %19 = shl i32 1, %18
  %20 = load ptr, ptr %4, align 8
  %21 = load i64, ptr %6, align 8
  %22 = udiv i64 %21, 8
  %23 = getelementptr inbounds nuw i8, ptr %20, i64 %22
  %24 = load i8, ptr %23, align 1
  %25 = zext i8 %24 to i32
  %26 = or i32 %25, %19
  %27 = trunc i32 %26 to i8
  store i8 %27, ptr %23, align 1
  br label %28

28:                                               ; preds = %15
  %29 = load ptr, ptr %3, align 8
  %30 = load i64, ptr %6, align 8
  %31 = call noundef i64 @_ZNK3ue29CharReach9find_nextEm(ptr noundef nonnull align 8 dereferenceable(32) %29, i64 noundef %30)
  store i64 %31, ptr %6, align 8
  br label %11, !llvm.loop !10

32:                                               ; preds = %14
  ret void
}