; Function Attrs: mustprogress nofree norecurse nosync nounwind memory(argmem: readwrite) uwtable
define hidden void @_ZN3ue214fill_bitvectorERKNS_9CharReachEPh(ptr noundef nonnull readonly align 8 captures(none) dereferenceable(32) %0, ptr noundef captures(none) initializes((0, 32)) %1) local_unnamed_addr #6 {
  tail call void @llvm.memset.p0.i64(ptr noundef nonnull align 1 dereferenceable(32) %1, i8 0, i64 32, i1 false)
  br label %3

3:                                                ; preds = %6, %2
  %.0710.i.i = phi i64 [ 0, %2 ], [ %7, %6 ]
  %4 = getelementptr inbounds nuw [4 x i64], ptr %0, i64 0, i64 %.0710.i.i
  %5 = load i64, ptr %4, align 8
  %.not.i.i = icmp eq i64 %5, 0
  br i1 %.not.i.i, label %6, label %_ZNK3ue29CharReach10find_firstEv.exit

6:                                                ; preds = %3
  %7 = add nuw nsw i64 %.0710.i.i, 1
  %exitcond.i.i = icmp eq i64 %7, 4
  br i1 %exitcond.i.i, label %._crit_edge, label %3, !llvm.loop !5

_ZNK3ue29CharReach10find_firstEv.exit:            ; preds = %3
  %8 = shl nuw nsw i64 %.0710.i.i, 6
  %9 = tail call noundef range(i64 0, 65) i64 @llvm.cttz.i64(i64 %5, i1 true)
  %10 = or disjoint i64 %9, %8
  %.not11 = icmp eq i64 %10, 256
  br i1 %.not11, label %._crit_edge, label %.lr.ph.preheader

.lr.ph.preheader:                                 ; preds = %_ZNK3ue29CharReach10find_firstEv.exit
  %11 = trunc nuw nsw i64 %9 to i8
  %12 = and i8 %11, 7
  %13 = shl nuw i8 1, %12
  %14 = lshr i64 %10, 3
  %15 = getelementptr inbounds nuw i8, ptr %1, i64 %14
  %16 = load i8, ptr %15, align 1
  %17 = or i8 %16, %13
  store i8 %17, ptr %15, align 1
  %.not.i.i732 = icmp samesign ult i64 %.0710.i.i, 4
  br i1 %.not.i.i732, label %.lr.ph34, label %._crit_edge

._crit_edge:                                      ; preds = %6, %_ZNK3ue29CharReach9find_nextEm.exit, %27, %.lr.ph.preheader, %_ZNK3ue29CharReach10find_firstEv.exit
  ret void

.lr.ph34:                                         ; preds = %.lr.ph.preheader, %_ZNK3ue29CharReach9find_nextEm.exit
  %.01233 = phi i64 [ %35, %_ZNK3ue29CharReach9find_nextEm.exit ], [ %10, %.lr.ph.preheader ]
  %18 = lshr i64 %.01233, 6
  %19 = and i64 %.01233, 63
  %.not20.i.i = icmp eq i64 %19, 63
  br i1 %.not20.i.i, label %.preheader, label %20

.preheader:                                       ; preds = %20, %.lr.ph34
  br label %27

20:                                               ; preds = %.lr.ph34
  %21 = getelementptr inbounds nuw [4 x i64], ptr %0, i64 0, i64 %18
  %22 = load i64, ptr %21, align 8
  %23 = shl nsw i64 -2, %19
  %24 = and i64 %22, %23
  %.not21.i.i = icmp eq i64 %24, 0
  br i1 %.not21.i.i, label %.preheader, label %25

25:                                               ; preds = %20
  %26 = and i64 %.01233, 192
  br label %_ZNK3ue29CharReach9find_nextEm.exit

27:                                               ; preds = %.preheader, %29
  %.0.in.i.i = phi i64 [ %.0.i.i, %29 ], [ %18, %.preheader ]
  %28 = icmp samesign ult i64 %.0.in.i.i, 3
  br i1 %28, label %29, label %._crit_edge

29:                                               ; preds = %27
  %.0.i.i = add nuw nsw i64 %.0.in.i.i, 1
  %30 = getelementptr inbounds nuw [4 x i64], ptr %0, i64 0, i64 %.0.i.i
  %31 = load i64, ptr %30, align 8
  %.not22.i.i = icmp eq i64 %31, 0
  br i1 %.not22.i.i, label %27, label %32, !llvm.loop !7

32:                                               ; preds = %29
  %33 = shl nuw nsw i64 %.0.i.i, 6
  br label %_ZNK3ue29CharReach9find_nextEm.exit

_ZNK3ue29CharReach9find_nextEm.exit:              ; preds = %25, %32
  %.sink26 = phi i64 [ %24, %25 ], [ %31, %32 ]
  %.sink25 = phi i64 [ %26, %25 ], [ %33, %32 ]
  %34 = tail call range(i64 0, 65) i64 @llvm.cttz.i64(i64 %.sink26, i1 true)
  %35 = or disjoint i64 %34, %.sink25
  %36 = trunc nuw nsw i64 %34 to i8
  %37 = and i8 %36, 7
  %38 = shl nuw i8 1, %37
  %39 = lshr i64 %35, 3
  %40 = getelementptr inbounds nuw i8, ptr %1, i64 %39
  %41 = load i8, ptr %40, align 1
  %42 = or i8 %41, %38
  store i8 %42, ptr %40, align 1
  %.not.i.i7 = icmp samesign ult i64 %.sink25, 256
  br i1 %.not.i.i7, label %.lr.ph34, label %._crit_edge, !llvm.loop !29
}